target datalayout = "e-m:e-p270:32:32-p271:32:32-p272:64:64-i64:64-i128:128-f80:128-n8:16:32:64-S128"
target triple = "x86_64-pc-linux-gnu"

%struct.Curl_easy = type { i32, i64, i64, ptr, %struct.Curl_llist_node, %struct.Curl_llist_node, i32, i32, %struct.Curl_message, %struct.easy_pollset, %struct.Names, ptr, ptr, ptr, %struct.SingleRequest, %struct.UserDefined, ptr, ptr, %struct.Progress, %struct.UrlState, ptr, %struct.PureInfo, %struct.curl_tlssessioninfo }
%struct.Curl_llist_node = type { ptr, ptr, ptr, ptr }
%struct.Curl_message = type { %struct.Curl_llist_node, %struct.CURLMsg }
%struct.CURLMsg = type { i32, ptr, %union.anon }
%union.anon = type { ptr }
%struct.easy_pollset = type { [5 x i32], i32, [5 x i8] }
%struct.Names = type { ptr, i32 }
%struct.SingleRequest = type <{ i64, i64, i64, i64, %struct.curltime, i32, i32, i32, i32, i64, i32, i32, i32, i32, ptr, ptr, %struct.bufq, i64, i64, ptr, ptr, %union.anon.0, ptr, i8, i32, [3 x i8] }>
%struct.curltime = type { i64, i32 }
%struct.bufq = type { ptr, ptr, ptr, ptr, i64, i64, i64, i32 }
%union.anon.0 = type { ptr }
%struct.UserDefined = type <{ ptr, ptr, ptr, ptr, ptr, ptr, i16, [6 x i8], i64, i64, i64, ptr, ptr, i64, i16, i16, [4 x i8], ptr, ptr, ptr, ptr, ptr, ptr, ptr, ptr, ptr, ptr, ptr, ptr, ptr, ptr, ptr, ptr, ptr, ptr, ptr, ptr, ptr, ptr, ptr, i32, i32, i32, i32, i32, [4 x i8], i64, i64, i64, i64, i64, i64, i64, i64, ptr, ptr, %struct.curl_mimepart, ptr, ptr, i64, i8, i8, i8, [5 x i8], %struct.ssl_config_data, %struct.ssl_config_data, ptr, i16, i8, i8, [4 x i8], %struct.ssl_general_config, i32, i32, i32, [4 x i8], ptr, ptr, i8, [7 x i8], i64, i8, i8, i8, i8, i32, ptr, ptr, ptr, i8, i8, [2 x i8], i32, [63 x ptr], [8 x ptr], i32, i32, i32, [4 x i8], ptr, ptr, ptr, ptr, ptr, i8, [3 x i8], i32, i32, i32, i64, %struct.Curl_data_priority, ptr, ptr, i64, ptr, i64, ptr, ptr, ptr, i8, [3 x i8], i32, i8, i8, i64, [6 x i8] }>
%struct.curl_mimepart = type { ptr, ptr, i32, i32, ptr, ptr, ptr, ptr, ptr, ptr, ptr, ptr, ptr, ptr, ptr, i64, %struct.mime_state, ptr, %struct.mime_encoder_state, i64 }
%struct.mime_state = type { i32, ptr, i64 }
%struct.mime_encoder_state = type { i64, i64, i64, [256 x i8] }
%struct.ssl_config_data = type { %struct.ssl_primary_config, i64, ptr, ptr, ptr, ptr, ptr, ptr, ptr, i16 }
%struct.ssl_primary_config = type { ptr, ptr, ptr, ptr, ptr, ptr, ptr, ptr, ptr, ptr, ptr, ptr, i8, i32, i8, i8 }
%struct.ssl_general_config = type { i64, i32 }
%struct.Curl_data_priority = type { ptr, ptr, i32, i8 }
%struct.Progress = type { i64, %struct.pgrs_dir, %struct.pgrs_dir, i64, i64, i32, i32, i64, i64, i64, i64, i64, i64, i64, i64, i64, %struct.curltime, %struct.curltime, %struct.curltime, %struct.curltime, [6 x i64], [6 x %struct.curltime], i32, i8 }
%struct.pgrs_dir = type { i64, i64, i64, %struct.pgrs_measure }
%struct.pgrs_measure = type { %struct.curltime, i64 }
%struct.UrlState = type { %struct.curltime, i64, i64, %struct.dynbuf, ptr, i64, ptr, i32, i32, i32, ptr, i64, i32, i64, i32, ptr, %struct.digestdata, %struct.digestdata, %struct.auth, %struct.auth, %struct.Curl_async, ptr, %struct.curltime, %struct.Curl_tree, %struct.Curl_llist, [15 x %struct.time_node], ptr, ptr, i64, i64, %struct.Curl_data_priority, ptr, ptr, ptr, %struct.urlpieces, ptr, ptr, ptr, ptr, ptr, i64, %struct.dynbuf, %struct.Curl_llist, [2 x %struct.curl_header], ptr, i32, ptr, ptr, %struct.store_netrc, %struct.dynamically_allocated_data, i8, i8, i8, i8, i32 }
%struct.digestdata = type { ptr, ptr, ptr, ptr, ptr, ptr, i32, i8, i8 }
%struct.auth = type { i64, i64, i64, i8 }
%struct.Curl_async = type { ptr, ptr, ptr, ptr, i32, i32, i8 }
%struct.Curl_tree = type { ptr, ptr, ptr, ptr, %struct.curltime, ptr }
%struct.time_node = type { %struct.Curl_llist_node, %struct.curltime, i32 }
%struct.urlpieces = type { ptr, ptr, ptr, ptr, ptr, ptr, ptr, ptr }
%struct.dynbuf = type { ptr, i64, i64, i64 }
%struct.Curl_llist = type { ptr, ptr, ptr, i64 }
%struct.curl_header = type { ptr, ptr, i64, i64, i32, ptr }
%struct.store_netrc = type { %struct.dynbuf, ptr, i8 }
%struct.dynamically_allocated_data = type { ptr, ptr, ptr, ptr, ptr, ptr, ptr, ptr, ptr, ptr, ptr, ptr, ptr }
%struct.PureInfo = type { i32, i32, i32, i64, i64, i64, i64, i64, ptr, ptr, i64, i32, %struct.ip_quadruple, i32, ptr, i32, %struct.curl_certinfo, i32, i8 }
%struct.ip_quadruple = type { [46 x i8], [46 x i8], i32, i32 }
%struct.curl_certinfo = type { i32, ptr }
%struct.curl_tlssessioninfo = type { i32, ptr }
%struct.connectdata = type { %struct.Curl_llist_node, ptr, ptr, i64, ptr, i64, ptr, ptr, %struct.hostname, ptr, ptr, %struct.hostname, %struct.proxy_info, %struct.proxy_info, %struct.ip_quadruple, %struct.ip_quadruple, ptr, ptr, ptr, ptr, ptr, %struct.curltime, %struct.curltime, %struct.curltime, [2 x i32], [2 x ptr], [2 x ptr], [2 x ptr], %struct.anon, %struct.easy_pollset, %struct.ssl_primary_config, %struct.ssl_primary_config, %struct.ConnectBits, ptr, ptr, %struct.curltime, i32, i32, %struct.Curl_llist, i32, i32, %struct.ntlmdata, %struct.ntlmdata, %union.anon.1, ptr, i16, i32, i32, i32, i32, i16, i16, i8, i8, i8, i8, i8, i8, i8 }
%struct.hostname = type { ptr, ptr, ptr, ptr }
%struct.proxy_info = type { %struct.hostname, i32, i8, ptr, ptr }
%struct.anon = type { [2 x %struct.curltime], i32 }
%struct.ConnectBits = type { i64 }
%struct.ntlmdata = type { i32, [8 x i8], i32, ptr }
%union.anon.1 = type { %struct.ftp_conn }
%struct.ftp_conn = type { %struct.pingpong, ptr, ptr, ptr, ptr, ptr, ptr, ptr, i8, i64, ptr, i64, i32, i32, i32, i32, i32, i16, i8, i8, i8, i8, i8 }
%struct.pingpong = type { i64, i8, ptr, i64, i64, %struct.curltime, i64, %struct.dynbuf, %struct.dynbuf, i64, i64, ptr, ptr }
%struct.curl_trc_feat = type { ptr, i32 }

@.str.33 = private unnamed_addr constant [1 x i8] zeroinitializer, align 1
@.str.116 = private unnamed_addr constant [39 x i8] c"Need to rewind upload for next request\00", align 1
@.str.117 = private unnamed_addr constant [5 x i8] c"NTML\00", align 1
@.str.118 = private unnamed_addr constant [44 x i8] c"%s%sclose instead of sending %ld more bytes\00", align 1
@.str.119 = private unnamed_addr constant [8 x i8] c" send, \00", align 1
@.str.120 = private unnamed_addr constant [58 x i8] c"%s%sclose instead of sending unknown amount of more bytes\00", align 1

; Function Attrs: nounwind uwtable
define internal i32 @http_perhapsrewind(ptr noundef %0, ptr noundef %1) #0 {
  %3 = alloca i32, align 4
  %4 = alloca ptr, align 8
  %5 = alloca ptr, align 8
  %6 = alloca i64, align 8
  %7 = alloca i64, align 8
  %8 = alloca i64, align 8
  %9 = alloca i8, align 1
  %10 = alloca i8, align 1
  %11 = alloca i8, align 1
  %12 = alloca ptr, align 8
  %13 = alloca i32, align 4
  store ptr %0, ptr %4, align 8, !tbaa !4
  store ptr %1, ptr %5, align 8, !tbaa !9
  call void @llvm.lifetime.start.p0(i64 8, ptr %6) #6
  %14 = load ptr, ptr %4, align 8, !tbaa !4
  %15 = getelementptr inbounds nuw %struct.Curl_easy, ptr %14, i32 0, i32 14
  %16 = getelementptr inbounds nuw %struct.SingleRequest, ptr %15, i32 0, i32 3
  %17 = load i64, ptr %16, align 8, !tbaa !147
  store i64 %17, ptr %6, align 8, !tbaa !121
  call void @llvm.lifetime.start.p0(i64 8, ptr %7) #6
  %18 = load ptr, ptr %4, align 8, !tbaa !4
  %19 = call i64 @Curl_creader_total_length(ptr noundef %18)
  store i64 %19, ptr %7, align 8, !tbaa !121
  call void @llvm.lifetime.start.p0(i64 8, ptr %8) #6
  %20 = load i64, ptr %7, align 8, !tbaa !121
  %21 = icmp sge i64 %20, 0
  br i1 %21, label %22, label %26

22:                                               ; preds = %2
  %23 = load i64, ptr %7, align 8, !tbaa !121
  %24 = load i64, ptr %6, align 8, !tbaa !121
  %25 = sub nsw i64 %23, %24
  br label %27

26:                                               ; preds = %2
  br label %27

27:                                               ; preds = %26, %22
  %28 = phi i64 [ %25, %22 ], [ -1, %26 ]
  store i64 %28, ptr %8, align 8, !tbaa !121
  call void @llvm.lifetime.start.p0(i64 1, ptr %9) #6
  %29 = load i64, ptr %8, align 8, !tbaa !121
  %30 = icmp sge i64 %29, 0
  br i1 %30, label %31, label %34

31:                                               ; preds = %27
  %32 = load i64, ptr %8, align 8, !tbaa !121
  %33 = icmp slt i64 %32, 2000
  br label %34

34:                                               ; preds = %31, %27
  %35 = phi i1 [ false, %27 ], [ %33, %31 ]
  %36 = zext i1 %35 to i8
  store i8 %36, ptr %9, align 1, !tbaa !84
  call void @llvm.lifetime.start.p0(i64 1, ptr %10) #6
  %37 = load ptr, ptr %4, align 8, !tbaa !4
  %38 = call zeroext i1 @Curl_creader_needs_rewind(ptr noundef %37)
  %39 = zext i1 %38 to i8
  store i8 %39, ptr %10, align 1, !tbaa !84
  call void @llvm.lifetime.start.p0(i64 1, ptr %11) #6
  %40 = load ptr, ptr %4, align 8, !tbaa !4
  %41 = getelementptr inbounds nuw %struct.Curl_easy, ptr %40, i32 0, i32 14
  %42 = getelementptr inbounds nuw %struct.SingleRequest, ptr %41, i32 0, i32 24
  %43 = load i32, ptr %42, align 1
  %44 = lshr i32 %43, 8
  %45 = and i32 %44, 1
  %46 = icmp ne i32 %45, 0
  br i1 %46, label %51, label %47

47:                                               ; preds = %34
  %48 = load i8, ptr %9, align 1, !tbaa !84, !range !113, !noundef !114
  %49 = trunc i8 %48 to i1
  %50 = xor i1 %49, true
  br label %51

51:                                               ; preds = %47, %34
  %52 = phi i1 [ false, %34 ], [ %50, %47 ]
  %53 = zext i1 %52 to i8
  store i8 %53, ptr %11, align 1, !tbaa !84
  call void @llvm.lifetime.start.p0(i64 8, ptr %12) #6
  store ptr null, ptr %12, align 8, !tbaa !83
  %54 = load i8, ptr %10, align 1, !tbaa !84, !range !113, !noundef !114
  %55 = trunc i8 %54 to i1
  br i1 %55, label %56, label %89

56:                                               ; preds = %51
  br label %57

57:                                               ; preds = %56
  %58 = load ptr, ptr %4, align 8, !tbaa !4
  %59 = icmp ne ptr %58, null
  br i1 %59, label %60, label %85

60:                                               ; preds = %57
  %61 = load ptr, ptr %4, align 8, !tbaa !4
  %62 = getelementptr inbounds nuw %struct.Curl_easy, ptr %61, i32 0, i32 15
  %63 = getelementptr inbounds nuw %struct.UserDefined, ptr %62, i32 0, i32 124
  %64 = load i64, ptr %63, align 2
  %65 = lshr i64 %64, 27
  %66 = and i64 %65, 1
  %67 = trunc i64 %66 to i32
  %68 = icmp ne i32 %67, 0
  br i1 %68, label %69, label %85

69:                                               ; preds = %60
  %70 = load ptr, ptr %4, align 8, !tbaa !4
  %71 = getelementptr inbounds nuw %struct.Curl_easy, ptr %70, i32 0, i32 19
  %72 = getelementptr inbounds nuw %struct.UrlState, ptr %71, i32 0, i32 47
  %73 = load ptr, ptr %72, align 8, !tbaa !136
  %74 = icmp ne ptr %73, null
  br i1 %74, label %75, label %83

75:                                               ; preds = %69
  %76 = load ptr, ptr %4, align 8, !tbaa !4
  %77 = getelementptr inbounds nuw %struct.Curl_easy, ptr %76, i32 0, i32 19
  %78 = getelementptr inbounds nuw %struct.UrlState, ptr %77, i32 0, i32 47
  %79 = load ptr, ptr %78, align 8, !tbaa !136
  %80 = getelementptr inbounds nuw %struct.curl_trc_feat, ptr %79, i32 0, i32 1
  %81 = load i32, ptr %80, align 8, !tbaa !137
  %82 = icmp sge i32 %81, 1
  br i1 %82, label %83, label %85

83:                                               ; preds = %75, %69
  %84 = load ptr, ptr %4, align 8, !tbaa !4
  call void (ptr, ptr, ...) @Curl_infof(ptr noundef %84, ptr noundef @.str.116)
  br label %85

85:                                               ; preds = %83, %75, %60, %57
  br label %86

86:                                               ; preds = %85
  br label %87

87:                                               ; preds = %86
  %88 = load ptr, ptr %4, align 8, !tbaa !4
  call void @Curl_creader_set_rewind(ptr noundef %88, i1 noundef zeroext true)
  br label %89

89:                                               ; preds = %87, %51
  %90 = load ptr, ptr %5, align 8, !tbaa !9
  %91 = getelementptr inbounds nuw %struct.connectdata, ptr %90, i32 0, i32 32
  %92 = load i64, ptr %91, align 8
  %93 = lshr i64 %92, 5
  %94 = and i64 %93, 1
  %95 = trunc i64 %94 to i32
  %96 = icmp ne i32 %95, 0
  br i1 %96, label %97, label %98

97:                                               ; preds = %89
  store i32 0, ptr %3, align 4
  store i32 1, ptr %13, align 4
  br label %225

98:                                               ; preds = %89
  %99 = load i8, ptr %11, align 1, !tbaa !84, !range !113, !noundef !114
  %100 = trunc i8 %99 to i1
  br i1 %100, label %101, label %128

101:                                              ; preds = %98
  %102 = load ptr, ptr %4, align 8, !tbaa !4
  %103 = getelementptr inbounds nuw %struct.Curl_easy, ptr %102, i32 0, i32 19
  %104 = getelementptr inbounds nuw %struct.UrlState, ptr %103, i32 0, i32 19
  %105 = getelementptr inbounds nuw %struct.auth, ptr %104, i32 0, i32 1
  %106 = load i64, ptr %105, align 8, !tbaa !148
  %107 = icmp eq i64 %106, 8
  br i1 %107, label %115, label %108

108:                                              ; preds = %101
  %109 = load ptr, ptr %4, align 8, !tbaa !4
  %110 = getelementptr inbounds nuw %struct.Curl_easy, ptr %109, i32 0, i32 19
  %111 = getelementptr inbounds nuw %struct.UrlState, ptr %110, i32 0, i32 18
  %112 = getelementptr inbounds nuw %struct.auth, ptr %111, i32 0, i32 1
  %113 = load i64, ptr %112, align 8, !tbaa !135
  %114 = icmp eq i64 %113, 8
  br i1 %114, label %115, label %127

115:                                              ; preds = %108, %101
  store ptr @.str.117, ptr %12, align 8, !tbaa !83
  %116 = load ptr, ptr %5, align 8, !tbaa !9
  %117 = getelementptr inbounds nuw %struct.connectdata, ptr %116, i32 0, i32 39
  %118 = load i32, ptr %117, align 8, !tbaa !149
  %119 = icmp ne i32 %118, 0
  br i1 %119, label %125, label %120

120:                                              ; preds = %115
  %121 = load ptr, ptr %5, align 8, !tbaa !9
  %122 = getelementptr inbounds nuw %struct.connectdata, ptr %121, i32 0, i32 40
  %123 = load i32, ptr %122, align 4, !tbaa !150
  %124 = icmp ne i32 %123, 0
  br i1 %124, label %125, label %126

125:                                              ; preds = %120, %115
  store i8 0, ptr %11, align 1, !tbaa !84
  br label %126

126:                                              ; preds = %125, %120
  br label %127

127:                                              ; preds = %126, %108
  br label %128

128:                                              ; preds = %127, %98
  %129 = load i8, ptr %11, align 1, !tbaa !84, !range !113, !noundef !114
  %130 = trunc i8 %129 to i1
  br i1 %130, label %131, label %224

131:                                              ; preds = %128
  %132 = load i64, ptr %8, align 8, !tbaa !121
  %133 = icmp sge i64 %132, 0
  br i1 %133, label %134, label %177

134:                                              ; preds = %131
  br label %135

135:                                              ; preds = %134
  %136 = load ptr, ptr %4, align 8, !tbaa !4
  %137 = icmp ne ptr %136, null
  br i1 %137, label %138, label %174

138:                                              ; preds = %135
  %139 = load ptr, ptr %4, align 8, !tbaa !4
  %140 = getelementptr inbounds nuw %struct.Curl_easy, ptr %139, i32 0, i32 15
  %141 = getelementptr inbounds nuw %struct.UserDefined, ptr %140, i32 0, i32 124
  %142 = load i64, ptr %141, align 2
  %143 = lshr i64 %142, 27
  %144 = and i64 %143, 1
  %145 = trunc i64 %144 to i32
  %146 = icmp ne i32 %145, 0
  br i1 %146, label %147, label %174

147:                                              ; preds = %138
  %148 = load ptr, ptr %4, align 8, !tbaa !4
  %149 = getelementptr inbounds nuw %struct.Curl_easy, ptr %148, i32 0, i32 19
  %150 = getelementptr inbounds nuw %struct.UrlState, ptr %149, i32 0, i32 47
  %151 = load ptr, ptr %150, align 8, !tbaa !136
  %152 = icmp ne ptr %151, null
  br i1 %152, label %153, label %161

153:                                              ; preds = %147
  %154 = load ptr, ptr %4, align 8, !tbaa !4
  %155 = getelementptr inbounds nuw %struct.Curl_easy, ptr %154, i32 0, i32 19
  %156 = getelementptr inbounds nuw %struct.UrlState, ptr %155, i32 0, i32 47
  %157 = load ptr, ptr %156, align 8, !tbaa !136
  %158 = getelementptr inbounds nuw %struct.curl_trc_feat, ptr %157, i32 0, i32 1
  %159 = load i32, ptr %158, align 8, !tbaa !137
  %160 = icmp sge i32 %159, 1
  br i1 %160, label %161, label %174

161:                                              ; preds = %153, %147
  %162 = load ptr, ptr %4, align 8, !tbaa !4
  %163 = load ptr, ptr %12, align 8, !tbaa !83
  %164 = icmp ne ptr %163, null
  br i1 %164, label %165, label %167

165:                                              ; preds = %161
  %166 = load ptr, ptr %12, align 8, !tbaa !83
  br label %168

167:                                              ; preds = %161
  br label %168

168:                                              ; preds = %167, %165
  %169 = phi ptr [ %166, %165 ], [ @.str.33, %167 ]
  %170 = load ptr, ptr %12, align 8, !tbaa !83
  %171 = icmp ne ptr %170, null
  %172 = select i1 %171, ptr @.str.119, ptr @.str.33
  %173 = load i64, ptr %8, align 8, !tbaa !121
  call void (ptr, ptr, ...) @Curl_infof(ptr noundef %162, ptr noundef @.str.118, ptr noundef %169, ptr noundef %172, i64 noundef %173)
  br label %174

174:                                              ; preds = %168, %153, %138, %135
  br label %175

175:                                              ; preds = %174
  br label %176

176:                                              ; preds = %175
  br label %219

177:                                              ; preds = %131
  br label %178

178:                                              ; preds = %177
  %179 = load ptr, ptr %4, align 8, !tbaa !4
  %180 = icmp ne ptr %179, null
  br i1 %180, label %181, label %216

181:                                              ; preds = %178
  %182 = load ptr, ptr %4, align 8, !tbaa !4
  %183 = getelementptr inbounds nuw %struct.Curl_easy, ptr %182, i32 0, i32 15
  %184 = getelementptr inbounds nuw %struct.UserDefined, ptr %183, i32 0, i32 124
  %185 = load i64, ptr %184, align 2
  %186 = lshr i64 %185, 27
  %187 = and i64 %186, 1
  %188 = trunc i64 %187 to i32
  %189 = icmp ne i32 %188, 0
  br i1 %189, label %190, label %216

190:                                              ; preds = %181
  %191 = load ptr, ptr %4, align 8, !tbaa !4
  %192 = getelementptr inbounds nuw %struct.Curl_easy, ptr %191, i32 0, i32 19
  %193 = getelementptr inbounds nuw %struct.UrlState, ptr %192, i32 0, i32 47
  %194 = load ptr, ptr %193, align 8, !tbaa !136
  %195 = icmp ne ptr %194, null
  br i1 %195, label %196, label %204

196:                                              ; preds = %190
  %197 = load ptr, ptr %4, align 8, !tbaa !4
  %198 = getelementptr inbounds nuw %struct.Curl_easy, ptr %197, i32 0, i32 19
  %199 = getelementptr inbounds nuw %struct.UrlState, ptr %198, i32 0, i32 47
  %200 = load ptr, ptr %199, align 8, !tbaa !136
  %201 = getelementptr inbounds nuw %struct.curl_trc_feat, ptr %200, i32 0, i32 1
  %202 = load i32, ptr %201, align 8, !tbaa !137
  %203 = icmp sge i32 %202, 1
  br i1 %203, label %204, label %216

204:                                              ; preds = %196, %190
  %205 = load ptr, ptr %4, align 8, !tbaa !4
  %206 = load ptr, ptr %12, align 8, !tbaa !83
  %207 = icmp ne ptr %206, null
  br i1 %207, label %208, label %210

208:                                              ; preds = %204
  %209 = load ptr, ptr %12, align 8, !tbaa !83
  br label %211

210:                                              ; preds = %204
  br label %211

211:                                              ; preds = %210, %208
  %212 = phi ptr [ %209, %208 ], [ @.str.33, %210 ]
  %213 = load ptr, ptr %12, align 8, !tbaa !83
  %214 = icmp ne ptr %213, null
  %215 = select i1 %214, ptr @.str.119, ptr @.str.33
  call void (ptr, ptr, ...) @Curl_infof(ptr noundef %205, ptr noundef @.str.120, ptr noundef %212, ptr noundef %215)
  br label %216

216:                                              ; preds = %211, %196, %181, %178
  br label %217

217:                                              ; preds = %216
  br label %218

218:                                              ; preds = %217
  br label %219

219:                                              ; preds = %218, %176
  %220 = load ptr, ptr %5, align 8, !tbaa !9
  call void @Curl_conncontrol(ptr noundef %220, i32 noundef 2)
  %221 = load ptr, ptr %4, align 8, !tbaa !4
  %222 = getelementptr inbounds nuw %struct.Curl_easy, ptr %221, i32 0, i32 14
  %223 = getelementptr inbounds nuw %struct.SingleRequest, ptr %222, i32 0, i32 0
  store i64 0, ptr %223, align 8, !tbaa !151
  br label %224

224:                                              ; preds = %219, %128
  store i32 0, ptr %3, align 4
  store i32 1, ptr %13, align 4
  br label %225

225:                                              ; preds = %224, %97
  call void @llvm.lifetime.end.p0(i64 8, ptr %12) #6
  call void @llvm.lifetime.end.p0(i64 1, ptr %11) #6
  call void @llvm.lifetime.end.p0(i64 1, ptr %10) #6
  call void @llvm.lifetime.end.p0(i64 1, ptr %9) #6
  call void @llvm.lifetime.end.p0(i64 8, ptr %8) #6
  call void @llvm.lifetime.end.p0(i64 8, ptr %7) #6
  call void @llvm.lifetime.end.p0(i64 8, ptr %6) #6
  %226 = load i32, ptr %3, align 4
  ret i32 %226
}