; Function Attrs: nounwind uwtable
define internal fastcc void @http_perhapsrewind(ptr noundef %0, ptr noundef %1) unnamed_addr #0 {
  %3 = getelementptr inbounds nuw i8, ptr %0, i64 232
  %4 = getelementptr inbounds nuw i8, ptr %0, i64 256
  %5 = load i64, ptr %4, align 8, !tbaa !134
  %6 = tail call i64 @Curl_creader_total_length(ptr noundef %0) #11
  %7 = icmp sgt i64 %6, -1
  %8 = sub nsw i64 %6, %5
  %9 = select i1 %7, i64 %8, i64 -1
  %10 = icmp sgt i64 %9, -1
  %11 = icmp ult i64 %9, 2000
  %12 = tail call zeroext i1 @Curl_creader_needs_rewind(ptr noundef %0) #11
  %13 = getelementptr inbounds nuw i8, ptr %0, i64 449
  %14 = load i32, ptr %13, align 1
  %15 = and i32 %14, 256
  %.not = icmp ne i32 %15, 0
  br i1 %12, label %16, label %29

16:                                               ; preds = %2
  %17 = getelementptr inbounds nuw i8, ptr %0, i64 2562
  %18 = load i64, ptr %17, align 2
  %19 = and i64 %18, 134217728
  %.not52 = icmp eq i64 %19, 0
  br i1 %.not52, label %28, label %20

20:                                               ; preds = %16
  %21 = getelementptr inbounds nuw i8, ptr %0, i64 4712
  %22 = load ptr, ptr %21, align 8, !tbaa !128
  %.not53 = icmp eq ptr %22, null
  br i1 %.not53, label %27, label %23

23:                                               ; preds = %20
  %24 = getelementptr inbounds nuw i8, ptr %22, i64 8
  %25 = load i32, ptr %24, align 8, !tbaa !129
  %26 = icmp sgt i32 %25, 0
  br i1 %26, label %27, label %28

27:                                               ; preds = %23, %20
  tail call void (ptr, ptr, ...) @Curl_infof(ptr noundef nonnull %0, ptr noundef nonnull @.str.116) #11
  br label %28

28:                                               ; preds = %27, %23, %16
  tail call void @Curl_creader_set_rewind(ptr noundef nonnull %0, i1 noundef zeroext true) #11
  br label %29

29:                                               ; preds = %28, %2
  %30 = getelementptr inbounds nuw i8, ptr %1, i64 920
  %31 = load i64, ptr %30, align 8
  %32 = and i64 %31, 32
  %.not54 = icmp ne i64 %32, 0
  %33 = select i1 %.not54, i1 true, i1 %.not
  %brmerge = select i1 %33, i1 true, i1 %11
  br i1 %brmerge, label %75, label %34

34:                                               ; preds = %29
  %35 = getelementptr inbounds nuw i8, ptr %0, i64 3312
  %36 = load i64, ptr %35, align 8, !tbaa !135
  %37 = icmp eq i64 %36, 8
  br i1 %37, label %42, label %38

38:                                               ; preds = %34
  %39 = getelementptr inbounds nuw i8, ptr %0, i64 3280
  %40 = load i64, ptr %39, align 8, !tbaa !136
  %41 = icmp eq i64 %40, 8
  br i1 %41, label %42, label %48

42:                                               ; preds = %38, %34
  %43 = getelementptr inbounds nuw i8, ptr %1, i64 1000
  %44 = load i32, ptr %43, align 8, !tbaa !137
  %.not55 = icmp eq i32 %44, 0
  br i1 %.not55, label %45, label %75

45:                                               ; preds = %42
  %46 = getelementptr inbounds nuw i8, ptr %1, i64 1004
  %47 = load i32, ptr %46, align 4, !tbaa !138
  %.not56 = icmp eq i32 %47, 0
  br i1 %.not56, label %48, label %75

48:                                               ; preds = %45, %38
  %.not60.ph = phi i1 [ true, %38 ], [ false, %45 ]
  %.0.ph = phi ptr [ null, %38 ], [ @.str.117, %45 ]
  %49 = getelementptr inbounds nuw i8, ptr %0, i64 2562
  %50 = load i64, ptr %49, align 2
  %51 = and i64 %50, 134217728
  %.not62 = icmp eq i64 %51, 0
  br i1 %10, label %52, label %63

52:                                               ; preds = %48
  br i1 %.not62, label %74, label %53

53:                                               ; preds = %52
  %54 = getelementptr inbounds nuw i8, ptr %0, i64 4712
  %55 = load ptr, ptr %54, align 8, !tbaa !128
  %.not63 = icmp eq ptr %55, null
  br i1 %.not63, label %60, label %56

56:                                               ; preds = %53
  %57 = getelementptr inbounds nuw i8, ptr %55, i64 8
  %58 = load i32, ptr %57, align 8, !tbaa !129
  %59 = icmp sgt i32 %58, 0
  br i1 %59, label %60, label %74

60:                                               ; preds = %56, %53
  %61 = select i1 %.not60.ph, ptr @.str.33, ptr %.0.ph
  %62 = select i1 %.not60.ph, ptr @.str.33, ptr @.str.119
  tail call void (ptr, ptr, ...) @Curl_infof(ptr noundef nonnull %0, ptr noundef nonnull @.str.118, ptr noundef %61, ptr noundef nonnull %62, i64 noundef %9) #11
  br label %74

63:                                               ; preds = %48
  br i1 %.not62, label %74, label %64

64:                                               ; preds = %63
  %65 = getelementptr inbounds nuw i8, ptr %0, i64 4712
  %66 = load ptr, ptr %65, align 8, !tbaa !128
  %.not59 = icmp eq ptr %66, null
  br i1 %.not59, label %71, label %67

67:                                               ; preds = %64
  %68 = getelementptr inbounds nuw i8, ptr %66, i64 8
  %69 = load i32, ptr %68, align 8, !tbaa !129
  %70 = icmp sgt i32 %69, 0
  br i1 %70, label %71, label %74

71:                                               ; preds = %67, %64
  %72 = select i1 %.not60.ph, ptr @.str.33, ptr %.0.ph
  %73 = select i1 %.not60.ph, ptr @.str.33, ptr @.str.119
  tail call void (ptr, ptr, ...) @Curl_infof(ptr noundef nonnull %0, ptr noundef nonnull @.str.120, ptr noundef %72, ptr noundef nonnull %73) #11
  br label %74

74:                                               ; preds = %63, %67, %71, %52, %56, %60
  tail call void @Curl_conncontrol(ptr noundef nonnull %1, i32 noundef 2) #11
  store i64 0, ptr %3, align 8, !tbaa !139
  br label %75

75:                                               ; preds = %29, %42, %45, %74
  ret void
}